; Function Attrs: mustprogress nounwind uwtable
define hidden void @_ZN22G1ConcurrentMarkThread20concurrent_cycle_endEb(ptr nocapture noundef nonnull readonly align 8 dereferenceable(948) %0, i1 noundef zeroext %1) local_unnamed_addr #0 align 2 {
_ZN26SuspendibleThreadSetJoinerD2Ev.exit:
  tail call void @_ZN23ConcurrentGCBreakpoints2atEPKc(ptr noundef nonnull @.str.21) #11
  tail call void @_ZN20SuspendibleThreadSet4joinEv() #11
  %2 = load ptr, ptr @_ZN8Universe14_collectedHeapE, align 8
  tail call void @_ZN15G1CollectedHeap38increment_old_marking_cycles_completedEbb(ptr noundef nonnull align 8 dereferenceable(1488) %2, i1 noundef zeroext true, i1 noundef zeroext %1) #11
  %3 = getelementptr inbounds i8, ptr %0, i64 936
  %4 = load ptr, ptr %3, align 8
  tail call void @_ZN16G1ConcurrentMark20concurrent_cycle_endEb(ptr noundef nonnull align 8 dereferenceable(1849) %4, i1 noundef zeroext %1) #11
  tail call void @_ZN23ConcurrentGCBreakpoints21notify_active_to_idleEv() #11
  tail call void @_ZN20SuspendibleThreadSet5leaveEv() #11
  ret void
}